target datalayout = "e-m:e-p270:32:32-p271:32:32-p272:64:64-i64:64-i128:128-f80:128-n8:16:32:64-S128"
target triple = "x86_64-pc-linux-gnu"

%struct.nameData = type { [64 x i8] }
%struct.RelationData = type { %struct.RelFileLocator, ptr, i32, i32, i8, i8, i8, i8, i8, i32, i32, i32, i32, ptr, ptr, i32, %struct.LockInfoData, ptr, ptr, ptr, ptr, ptr, i8, ptr, ptr, ptr, ptr, ptr, ptr, i32, ptr, i8, ptr, ptr, i32, i8, i32, ptr, i8, ptr, ptr, ptr, ptr, ptr, ptr, ptr, i32, ptr, ptr, ptr, ptr, ptr, ptr, ptr, ptr, ptr, ptr, ptr, ptr, ptr, ptr, ptr, ptr, ptr, ptr, ptr, i32, i8, ptr }
%struct.RelFileLocator = type { i32, i32, i32 }
%struct.LockInfoData = type { %struct.LockRelId }
%struct.LockRelId = type { i32, i32 }
%struct.FormData_pg_class = type { i32, %struct.nameData, i32, i32, i32, i32, i32, i32, i32, i32, float, i32, i32, i8, i8, i8, i8, i16, i16, i8, i8, i8, i8, i8, i8, i8, i8, i32, i32, i32 }
%struct.HeapTupleData = type { i32, %struct.ItemPointerData, i32, ptr }
%struct.ItemPointerData = type { %struct.BlockIdData, i16 }
%struct.BlockIdData = type { i16, i16 }
%struct.HeapTupleHeaderData = type { %union.anon, %struct.ItemPointerData, i16, i16, i8, [0 x i8] }
%union.anon = type { %struct.HeapTupleFields }
%struct.HeapTupleFields = type { i32, i32, %union.anon.0 }
%union.anon.0 = type { i32 }
%struct.StdRdOptions = type { i32, i32, i32, %struct.AutoVacOpts, i8, i32, i32, i8, double }
%struct.AutoVacOpts = type { i8, i32, i32, i32, i32, i32, i32, i32, i32, i32, i32, i32, i32, double, double, double, double }

@.str.1 = private unnamed_addr constant [11 x i8] c"relcache.c\00", align 1
@MyDatabaseId = external global i32, align 4
@MyDatabaseTableSpace = external global i32, align 4
@wal_level = external global i32, align 4
@.str.62 = private unnamed_addr constant [37 x i8] c"could not find pg_class entry for %u\00", align 1
@__func__.RelationInitPhysicalAddr = private unnamed_addr constant [25 x i8] c"RelationInitPhysicalAddr\00", align 1
@.str.63 = private unnamed_addr constant [58 x i8] c"could not find relation mapping for relation \22%s\22, OID %u\00", align 1
@ParallelWorkerNumber = external global i32, align 4

; Function Attrs: inlinehint nounwind uwtable
define internal ptr @GETSTRUCT(ptr noundef %0) #3 {
  %2 = alloca ptr, align 8
  store ptr %0, ptr %2, align 8
  %3 = load ptr, ptr %2, align 8
  %4 = getelementptr inbounds nuw %struct.HeapTupleData, ptr %3, i32 0, i32 3
  %5 = load ptr, ptr %4, align 8
  %6 = load ptr, ptr %2, align 8
  %7 = getelementptr inbounds nuw %struct.HeapTupleData, ptr %6, i32 0, i32 3
  %8 = load ptr, ptr %7, align 8
  %9 = getelementptr inbounds nuw %struct.HeapTupleHeaderData, ptr %8, i32 0, i32 4
  %10 = load i8, ptr %9, align 2
  %11 = zext i8 %10 to i32
  %12 = sext i32 %11 to i64
  %13 = getelementptr inbounds i8, ptr %5, i64 %12
  ret ptr %13
}

; Function Attrs: nounwind uwtable
define internal void @RelationInitPhysicalAddr(ptr noundef %0) #0 {
  %2 = alloca ptr, align 8
  %3 = alloca i32, align 4
  %4 = alloca i32, align 4
  %5 = alloca ptr, align 8
  %6 = alloca ptr, align 8
  %7 = alloca { i64, i32 }, align 8
  store ptr %0, ptr %2, align 8
  call void @llvm.lifetime.start.p0(i64 4, ptr %3) #11
  %8 = load ptr, ptr %2, align 8
  %9 = getelementptr inbounds nuw %struct.RelationData, ptr %8, i32 0, i32 0
  %10 = getelementptr inbounds nuw %struct.RelFileLocator, ptr %9, i32 0, i32 2
  %11 = load i32, ptr %10, align 8
  store i32 %11, ptr %3, align 4
  %12 = load ptr, ptr %2, align 8
  %13 = getelementptr inbounds nuw %struct.RelationData, ptr %12, i32 0, i32 13
  %14 = load ptr, ptr %13, align 8
  %15 = getelementptr inbounds nuw %struct.FormData_pg_class, ptr %14, i32 0, i32 16
  %16 = load i8, ptr %15, align 1
  %17 = sext i8 %16 to i32
  %18 = icmp eq i32 %17, 114
  br i1 %18, label %52, label %19

19:                                               ; preds = %1
  %20 = load ptr, ptr %2, align 8
  %21 = getelementptr inbounds nuw %struct.RelationData, ptr %20, i32 0, i32 13
  %22 = load ptr, ptr %21, align 8
  %23 = getelementptr inbounds nuw %struct.FormData_pg_class, ptr %22, i32 0, i32 16
  %24 = load i8, ptr %23, align 1
  %25 = sext i8 %24 to i32
  %26 = icmp eq i32 %25, 105
  br i1 %26, label %52, label %27

27:                                               ; preds = %19
  %28 = load ptr, ptr %2, align 8
  %29 = getelementptr inbounds nuw %struct.RelationData, ptr %28, i32 0, i32 13
  %30 = load ptr, ptr %29, align 8
  %31 = getelementptr inbounds nuw %struct.FormData_pg_class, ptr %30, i32 0, i32 16
  %32 = load i8, ptr %31, align 1
  %33 = sext i8 %32 to i32
  %34 = icmp eq i32 %33, 83
  br i1 %34, label %52, label %35

35:                                               ; preds = %27
  %36 = load ptr, ptr %2, align 8
  %37 = getelementptr inbounds nuw %struct.RelationData, ptr %36, i32 0, i32 13
  %38 = load ptr, ptr %37, align 8
  %39 = getelementptr inbounds nuw %struct.FormData_pg_class, ptr %38, i32 0, i32 16
  %40 = load i8, ptr %39, align 1
  %41 = sext i8 %40 to i32
  %42 = icmp eq i32 %41, 116
  br i1 %42, label %52, label %43

43:                                               ; preds = %35
  %44 = load ptr, ptr %2, align 8
  %45 = getelementptr inbounds nuw %struct.RelationData, ptr %44, i32 0, i32 13
  %46 = load ptr, ptr %45, align 8
  %47 = getelementptr inbounds nuw %struct.FormData_pg_class, ptr %46, i32 0, i32 16
  %48 = load i8, ptr %47, align 1
  %49 = sext i8 %48 to i32
  %50 = icmp eq i32 %49, 109
  br i1 %50, label %52, label %51

51:                                               ; preds = %43
  store i32 1, ptr %4, align 4
  br label %273

52:                                               ; preds = %43, %35, %27, %19, %1
  %53 = load ptr, ptr %2, align 8
  %54 = getelementptr inbounds nuw %struct.RelationData, ptr %53, i32 0, i32 13
  %55 = load ptr, ptr %54, align 8
  %56 = getelementptr inbounds nuw %struct.FormData_pg_class, ptr %55, i32 0, i32 8
  %57 = load i32, ptr %56, align 4
  %58 = icmp ne i32 %57, 0
  br i1 %58, label %59, label %68

59:                                               ; preds = %52
  %60 = load ptr, ptr %2, align 8
  %61 = getelementptr inbounds nuw %struct.RelationData, ptr %60, i32 0, i32 13
  %62 = load ptr, ptr %61, align 8
  %63 = getelementptr inbounds nuw %struct.FormData_pg_class, ptr %62, i32 0, i32 8
  %64 = load i32, ptr %63, align 4
  %65 = load ptr, ptr %2, align 8
  %66 = getelementptr inbounds nuw %struct.RelationData, ptr %65, i32 0, i32 0
  %67 = getelementptr inbounds nuw %struct.RelFileLocator, ptr %66, i32 0, i32 0
  store i32 %64, ptr %67, align 8
  br label %73

68:                                               ; preds = %52
  %69 = load i32, ptr @MyDatabaseTableSpace, align 4
  %70 = load ptr, ptr %2, align 8
  %71 = getelementptr inbounds nuw %struct.RelationData, ptr %70, i32 0, i32 0
  %72 = getelementptr inbounds nuw %struct.RelFileLocator, ptr %71, i32 0, i32 0
  store i32 %69, ptr %72, align 8
  br label %73

73:                                               ; preds = %68, %59
  %74 = load ptr, ptr %2, align 8
  %75 = getelementptr inbounds nuw %struct.RelationData, ptr %74, i32 0, i32 0
  %76 = getelementptr inbounds nuw %struct.RelFileLocator, ptr %75, i32 0, i32 0
  %77 = load i32, ptr %76, align 8
  %78 = icmp eq i32 %77, 1664
  br i1 %78, label %79, label %83

79:                                               ; preds = %73
  %80 = load ptr, ptr %2, align 8
  %81 = getelementptr inbounds nuw %struct.RelationData, ptr %80, i32 0, i32 0
  %82 = getelementptr inbounds nuw %struct.RelFileLocator, ptr %81, i32 0, i32 1
  store i32 0, ptr %82, align 4
  br label %88

83:                                               ; preds = %73
  %84 = load i32, ptr @MyDatabaseId, align 4
  %85 = load ptr, ptr %2, align 8
  %86 = getelementptr inbounds nuw %struct.RelationData, ptr %85, i32 0, i32 0
  %87 = getelementptr inbounds nuw %struct.RelFileLocator, ptr %86, i32 0, i32 1
  store i32 %84, ptr %87, align 4
  br label %88

88:                                               ; preds = %83, %79
  %89 = load ptr, ptr %2, align 8
  %90 = getelementptr inbounds nuw %struct.RelationData, ptr %89, i32 0, i32 13
  %91 = load ptr, ptr %90, align 8
  %92 = getelementptr inbounds nuw %struct.FormData_pg_class, ptr %91, i32 0, i32 7
  %93 = load i32, ptr %92, align 4
  %94 = icmp ne i32 %93, 0
  br i1 %94, label %95, label %207

95:                                               ; preds = %88
  %96 = call zeroext i1 @HistoricSnapshotActive()
  br i1 %96, label %97, label %198

97:                                               ; preds = %95
  %98 = load i32, ptr @wal_level, align 4
  %99 = icmp sge i32 %98, 2
  br i1 %99, label %100, label %198

100:                                              ; preds = %97
  %101 = load ptr, ptr %2, align 8
  %102 = getelementptr inbounds nuw %struct.RelationData, ptr %101, i32 0, i32 13
  %103 = load ptr, ptr %102, align 8
  %104 = getelementptr inbounds nuw %struct.FormData_pg_class, ptr %103, i32 0, i32 15
  %105 = load i8, ptr %104, align 2
  %106 = sext i8 %105 to i32
  %107 = icmp eq i32 %106, 112
  br i1 %107, label %108, label %198

108:                                              ; preds = %100
  %109 = load i32, ptr @wal_level, align 4
  %110 = icmp sge i32 %109, 1
  br i1 %110, label %121, label %111

111:                                              ; preds = %108
  %112 = load ptr, ptr %2, align 8
  %113 = getelementptr inbounds nuw %struct.RelationData, ptr %112, i32 0, i32 9
  %114 = load i32, ptr %113, align 8
  %115 = icmp eq i32 %114, 0
  br i1 %115, label %116, label %198

116:                                              ; preds = %111
  %117 = load ptr, ptr %2, align 8
  %118 = getelementptr inbounds nuw %struct.RelationData, ptr %117, i32 0, i32 11
  %119 = load i32, ptr %118, align 8
  %120 = icmp eq i32 %119, 0
  br i1 %120, label %121, label %198

121:                                              ; preds = %116, %108
  %122 = load ptr, ptr %2, align 8
  %123 = call zeroext i1 @IsCatalogRelation(ptr noundef %122)
  br i1 %123, label %153, label %124

124:                                              ; preds = %121
  %125 = load ptr, ptr %2, align 8
  %126 = getelementptr inbounds nuw %struct.RelationData, ptr %125, i32 0, i32 45
  %127 = load ptr, ptr %126, align 8
  %128 = icmp ne ptr %127, null
  br i1 %128, label %129, label %152

129:                                              ; preds = %124
  %130 = load ptr, ptr %2, align 8
  %131 = getelementptr inbounds nuw %struct.RelationData, ptr %130, i32 0, i32 13
  %132 = load ptr, ptr %131, align 8
  %133 = getelementptr inbounds nuw %struct.FormData_pg_class, ptr %132, i32 0, i32 16
  %134 = load i8, ptr %133, align 1
  %135 = sext i8 %134 to i32
  %136 = icmp eq i32 %135, 114
  br i1 %136, label %145, label %137

137:                                              ; preds = %129
  %138 = load ptr, ptr %2, align 8
  %139 = getelementptr inbounds nuw %struct.RelationData, ptr %138, i32 0, i32 13
  %140 = load ptr, ptr %139, align 8
  %141 = getelementptr inbounds nuw %struct.FormData_pg_class, ptr %140, i32 0, i32 16
  %142 = load i8, ptr %141, align 1
  %143 = sext i8 %142 to i32
  %144 = icmp eq i32 %143, 109
  br i1 %144, label %145, label %152

145:                                              ; preds = %137, %129
  %146 = load ptr, ptr %2, align 8
  %147 = getelementptr inbounds nuw %struct.RelationData, ptr %146, i32 0, i32 45
  %148 = load ptr, ptr %147, align 8
  %149 = getelementptr inbounds nuw %struct.StdRdOptions, ptr %148, i32 0, i32 4
  %150 = load i8, ptr %149, align 8, !range !4, !noundef !5
  %151 = trunc i8 %150 to i1
  br i1 %151, label %153, label %198

152:                                              ; preds = %137, %124
  br i1 false, label %153, label %198

153:                                              ; preds = %152, %145, %121
  %154 = call zeroext i1 @IsTransactionState()
  br i1 %154, label %155, label %198

155:                                              ; preds = %153
  call void @llvm.lifetime.start.p0(i64 8, ptr %5) #11
  call void @llvm.lifetime.start.p0(i64 8, ptr %6) #11
  %156 = load ptr, ptr %2, align 8
  %157 = getelementptr inbounds nuw %struct.RelationData, ptr %156, i32 0, i32 15
  %158 = load i32, ptr %157, align 8
  %159 = load ptr, ptr %2, align 8
  %160 = getelementptr inbounds nuw %struct.RelationData, ptr %159, i32 0, i32 15
  %161 = load i32, ptr %160, align 8
  %162 = icmp ne i32 %161, 2662
  %163 = call ptr @ScanPgRelation(i32 noundef %158, i1 noundef zeroext %162, i1 noundef zeroext true)
  store ptr %163, ptr %5, align 8
  %164 = load ptr, ptr %5, align 8
  %165 = icmp ne ptr %164, null
  br i1 %165, label %180, label %166

166:                                              ; preds = %155
  br label %167

167:                                              ; preds = %166
  br i1 true, label %168, label %170

168:                                              ; preds = %167
  %169 = call zeroext i1 @errstart_cold(i32 noundef 21, ptr noundef null) #12
  br i1 %169, label %172, label %177

170:                                              ; preds = %167
  %171 = call zeroext i1 @errstart(i32 noundef 21, ptr noundef null)
  br i1 %171, label %172, label %177

172:                                              ; preds = %170, %168
  %173 = load ptr, ptr %2, align 8
  %174 = getelementptr inbounds nuw %struct.RelationData, ptr %173, i32 0, i32 15
  %175 = load i32, ptr %174, align 8
  %176 = call i32 (ptr, ...) @errmsg_internal(ptr noundef @.str.62, i32 noundef %175)
  call void @errfinish(ptr noundef @.str.1, i32 noundef 1351, ptr noundef @__func__.RelationInitPhysicalAddr)
  br label %177

177:                                              ; preds = %172, %170, %168
  unreachable

178:                                              ; No predecessors!
  br label %179

179:                                              ; preds = %178
  br label %180

180:                                              ; preds = %179, %155
  %181 = load ptr, ptr %5, align 8
  %182 = call ptr @GETSTRUCT(ptr noundef %181)
  store ptr %182, ptr %6, align 8
  %183 = load ptr, ptr %6, align 8
  %184 = getelementptr inbounds nuw %struct.FormData_pg_class, ptr %183, i32 0, i32 8
  %185 = load i32, ptr %184, align 4
  %186 = load ptr, ptr %2, align 8
  %187 = getelementptr inbounds nuw %struct.RelationData, ptr %186, i32 0, i32 13
  %188 = load ptr, ptr %187, align 8
  %189 = getelementptr inbounds nuw %struct.FormData_pg_class, ptr %188, i32 0, i32 8
  store i32 %185, ptr %189, align 4
  %190 = load ptr, ptr %6, align 8
  %191 = getelementptr inbounds nuw %struct.FormData_pg_class, ptr %190, i32 0, i32 7
  %192 = load i32, ptr %191, align 4
  %193 = load ptr, ptr %2, align 8
  %194 = getelementptr inbounds nuw %struct.RelationData, ptr %193, i32 0, i32 13
  %195 = load ptr, ptr %194, align 8
  %196 = getelementptr inbounds nuw %struct.FormData_pg_class, ptr %195, i32 0, i32 7
  store i32 %192, ptr %196, align 4
  %197 = load ptr, ptr %5, align 8
  call void @heap_freetuple(ptr noundef %197)
  call void @llvm.lifetime.end.p0(i64 8, ptr %6) #11
  call void @llvm.lifetime.end.p0(i64 8, ptr %5) #11
  br label %198

198:                                              ; preds = %180, %153, %152, %145, %116, %111, %100, %97, %95
  %199 = load ptr, ptr %2, align 8
  %200 = getelementptr inbounds nuw %struct.RelationData, ptr %199, i32 0, i32 13
  %201 = load ptr, ptr %200, align 8
  %202 = getelementptr inbounds nuw %struct.FormData_pg_class, ptr %201, i32 0, i32 7
  %203 = load i32, ptr %202, align 4
  %204 = load ptr, ptr %2, align 8
  %205 = getelementptr inbounds nuw %struct.RelationData, ptr %204, i32 0, i32 0
  %206 = getelementptr inbounds nuw %struct.RelFileLocator, ptr %205, i32 0, i32 2
  store i32 %203, ptr %206, align 8
  br label %247

207:                                              ; preds = %88
  %208 = load ptr, ptr %2, align 8
  %209 = getelementptr inbounds nuw %struct.RelationData, ptr %208, i32 0, i32 15
  %210 = load i32, ptr %209, align 8
  %211 = load ptr, ptr %2, align 8
  %212 = getelementptr inbounds nuw %struct.RelationData, ptr %211, i32 0, i32 13
  %213 = load ptr, ptr %212, align 8
  %214 = getelementptr inbounds nuw %struct.FormData_pg_class, ptr %213, i32 0, i32 14
  %215 = load i8, ptr %214, align 1, !range !4, !noundef !5
  %216 = trunc i8 %215 to i1
  %217 = call i32 @RelationMapOidToFilenumber(i32 noundef %210, i1 noundef zeroext %216)
  %218 = load ptr, ptr %2, align 8
  %219 = getelementptr inbounds nuw %struct.RelationData, ptr %218, i32 0, i32 0
  %220 = getelementptr inbounds nuw %struct.RelFileLocator, ptr %219, i32 0, i32 2
  store i32 %217, ptr %220, align 8
  %221 = load ptr, ptr %2, align 8
  %222 = getelementptr inbounds nuw %struct.RelationData, ptr %221, i32 0, i32 0
  %223 = getelementptr inbounds nuw %struct.RelFileLocator, ptr %222, i32 0, i32 2
  %224 = load i32, ptr %223, align 8
  %225 = icmp ne i32 %224, 0
  br i1 %225, label %246, label %226

226:                                              ; preds = %207
  br label %227

227:                                              ; preds = %226
  br i1 true, label %228, label %230

228:                                              ; preds = %227
  %229 = call zeroext i1 @errstart_cold(i32 noundef 21, ptr noundef null) #12
  br i1 %229, label %232, label %243

230:                                              ; preds = %227
  %231 = call zeroext i1 @errstart(i32 noundef 21, ptr noundef null)
  br i1 %231, label %232, label %243

232:                                              ; preds = %230, %228
  %233 = load ptr, ptr %2, align 8
  %234 = getelementptr inbounds nuw %struct.RelationData, ptr %233, i32 0, i32 13
  %235 = load ptr, ptr %234, align 8
  %236 = getelementptr inbounds nuw %struct.FormData_pg_class, ptr %235, i32 0, i32 1
  %237 = getelementptr inbounds nuw %struct.nameData, ptr %236, i32 0, i32 0
  %238 = getelementptr inbounds [64 x i8], ptr %237, i64 0, i64 0
  %239 = load ptr, ptr %2, align 8
  %240 = getelementptr inbounds nuw %struct.RelationData, ptr %239, i32 0, i32 15
  %241 = load i32, ptr %240, align 8
  %242 = call i32 (ptr, ...) @errmsg_internal(ptr noundef @.str.63, ptr noundef %238, i32 noundef %241)
  call void @errfinish(ptr noundef @.str.1, i32 noundef 1369, ptr noundef @__func__.RelationInitPhysicalAddr)
  br label %243

243:                                              ; preds = %232, %230, %228
  unreachable

244:                                              ; No predecessors!
  br label %245

245:                                              ; preds = %244
  br label %246

246:                                              ; preds = %245, %207
  br label %247

247:                                              ; preds = %246, %198
  %248 = load i32, ptr @ParallelWorkerNumber, align 4
  %249 = icmp sge i32 %248, 0
  br i1 %249, label %250, label %272

250:                                              ; preds = %247
  %251 = load i32, ptr %3, align 4
  %252 = load ptr, ptr %2, align 8
  %253 = getelementptr inbounds nuw %struct.RelationData, ptr %252, i32 0, i32 0
  %254 = getelementptr inbounds nuw %struct.RelFileLocator, ptr %253, i32 0, i32 2
  %255 = load i32, ptr %254, align 8
  %256 = icmp ne i32 %251, %255
  br i1 %256, label %257, label %272

257:                                              ; preds = %250
  %258 = load ptr, ptr %2, align 8
  %259 = getelementptr inbounds nuw %struct.RelationData, ptr %258, i32 0, i32 0
  call void @llvm.memcpy.p0.p0.i64(ptr align 8 %7, ptr align 8 %259, i64 12, i1 false)
  %260 = getelementptr inbounds nuw { i64, i32 }, ptr %7, i32 0, i32 0
  %261 = load i64, ptr %260, align 8
  %262 = getelementptr inbounds nuw { i64, i32 }, ptr %7, i32 0, i32 1
  %263 = load i32, ptr %262, align 8
  %264 = call zeroext i1 @RelFileLocatorSkippingWAL(i64 %261, i32 %263)
  br i1 %264, label %265, label %268

265:                                              ; preds = %257
  %266 = load ptr, ptr %2, align 8
  %267 = getelementptr inbounds nuw %struct.RelationData, ptr %266, i32 0, i32 11
  store i32 1, ptr %267, align 8
  br label %271

268:                                              ; preds = %257
  %269 = load ptr, ptr %2, align 8
  %270 = getelementptr inbounds nuw %struct.RelationData, ptr %269, i32 0, i32 11
  store i32 0, ptr %270, align 8
  br label %271

271:                                              ; preds = %268, %265
  br label %272

272:                                              ; preds = %271, %250, %247
  store i32 0, ptr %4, align 4
  br label %273

273:                                              ; preds = %272, %51
  call void @llvm.lifetime.end.p0(i64 4, ptr %3) #11
  %274 = load i32, ptr %4, align 4
  switch i32 %274, label %276 [
    i32 0, label %275
    i32 1, label %275
  ]

275:                                              ; preds = %273, %273
  ret void

276:                                              ; preds = %273
  unreachable
}