; Function Attrs: nounwind uwtable
define internal fastcc void @RelationInitPhysicalAddr(ptr noundef %0) unnamed_addr #0 {
  %2 = getelementptr inbounds nuw i8, ptr %0, i64 8
  %3 = load i32, ptr %2, align 8
  %4 = getelementptr inbounds nuw i8, ptr %0, i64 56
  %5 = load ptr, ptr %4, align 8
  %6 = getelementptr inbounds nuw i8, ptr %5, i64 115
  %7 = load i8, ptr %6, align 1
  switch i8 %7, label %87 [
    i8 114, label %8
    i8 105, label %8
    i8 83, label %8
    i8 116, label %8
    i8 109, label %8
  ]

8:                                                ; preds = %1, %1, %1, %1, %1
  %9 = getelementptr inbounds nuw i8, ptr %5, i64 92
  %10 = load i32, ptr %9, align 4
  %.not = icmp eq i32 %10, 0
  %11 = load i32, ptr @MyDatabaseTableSpace, align 4
  %storemerge = select i1 %.not, i32 %11, i32 %10
  store i32 %storemerge, ptr %0, align 8
  %12 = icmp eq i32 %storemerge, 1664
  %13 = load i32, ptr @MyDatabaseId, align 4
  %spec.select = select i1 %12, i32 0, i32 %13
  %14 = getelementptr inbounds nuw i8, ptr %0, i64 4
  store i32 %spec.select, ptr %14, align 4
  %15 = getelementptr inbounds nuw i8, ptr %5, i64 88
  %16 = load i32, ptr %15, align 4
  %.not50 = icmp eq i32 %16, 0
  br i1 %.not50, label %68, label %17

17:                                               ; preds = %8
  %18 = tail call zeroext i1 @HistoricSnapshotActive() #13
  %19 = load i32, ptr @wal_level, align 4
  %20 = icmp sgt i32 %19, 1
  %or.cond = select i1 %18, i1 %20, i1 false
  br i1 %or.cond, label %21, label %64

21:                                               ; preds = %17
  %22 = load ptr, ptr %4, align 8
  %23 = getelementptr inbounds nuw i8, ptr %22, i64 114
  %24 = load i8, ptr %23, align 2
  %25 = icmp eq i8 %24, 112
  br i1 %25, label %26, label %64

26:                                               ; preds = %21
  %27 = tail call zeroext i1 @IsCatalogRelation(ptr noundef nonnull %0) #13
  br i1 %27, label %39, label %28

28:                                               ; preds = %26
  %29 = getelementptr inbounds nuw i8, ptr %0, i64 304
  %30 = load ptr, ptr %29, align 8
  %.not52 = icmp eq ptr %30, null
  br i1 %.not52, label %64, label %31

31:                                               ; preds = %28
  %32 = load ptr, ptr %4, align 8
  %33 = getelementptr inbounds nuw i8, ptr %32, i64 115
  %34 = load i8, ptr %33, align 1
  switch i8 %34, label %64 [
    i8 114, label %35
    i8 109, label %35
  ]

35:                                               ; preds = %31, %31
  %36 = getelementptr inbounds nuw i8, ptr %30, i64 104
  %37 = load i8, ptr %36, align 8, !range !6, !noundef !7
  %38 = trunc nuw i8 %37 to i1
  br i1 %38, label %39, label %64

39:                                               ; preds = %35, %26
  %40 = tail call zeroext i1 @IsTransactionState() #13
  br i1 %40, label %41, label %64

41:                                               ; preds = %39
  %42 = getelementptr inbounds nuw i8, ptr %0, i64 72
  %43 = load i32, ptr %42, align 8
  %44 = icmp ne i32 %43, 2662
  %45 = tail call fastcc ptr @ScanPgRelation(i32 noundef %43, i1 noundef zeroext %44, i1 noundef zeroext true)
  %.not53 = icmp eq ptr %45, null
  br i1 %.not53, label %46, label %50

46:                                               ; preds = %41
  %47 = tail call zeroext i1 @errstart_cold(i32 noundef 21, ptr noundef null) #14
  tail call void @llvm.assume(i1 %47)
  %48 = load i32, ptr %42, align 8
  %49 = tail call i32 (ptr, ...) @errmsg_internal(ptr noundef nonnull @.str.62, i32 noundef %48) #13
  tail call void @errfinish(ptr noundef nonnull @.str.1, i32 noundef 1351, ptr noundef nonnull @__func__.RelationInitPhysicalAddr) #13
  unreachable

50:                                               ; preds = %41
  %51 = getelementptr i8, ptr %45, i64 16
  %.val = load ptr, ptr %51, align 8
  %52 = getelementptr inbounds nuw i8, ptr %.val, i64 22
  %53 = load i8, ptr %52, align 2
  %54 = zext i8 %53 to i64
  %55 = getelementptr inbounds nuw i8, ptr %.val, i64 %54
  %56 = getelementptr inbounds nuw i8, ptr %55, i64 92
  %57 = load i32, ptr %56, align 4
  %58 = load ptr, ptr %4, align 8
  %59 = getelementptr inbounds nuw i8, ptr %58, i64 92
  store i32 %57, ptr %59, align 4
  %60 = getelementptr inbounds nuw i8, ptr %55, i64 88
  %61 = load i32, ptr %60, align 4
  %62 = load ptr, ptr %4, align 8
  %63 = getelementptr inbounds nuw i8, ptr %62, i64 88
  store i32 %61, ptr %63, align 4
  tail call void @heap_freetuple(ptr noundef nonnull %45) #13
  br label %64

64:                                               ; preds = %31, %28, %50, %39, %35, %21, %17
  %65 = load ptr, ptr %4, align 8
  %66 = getelementptr inbounds nuw i8, ptr %65, i64 88
  %67 = load i32, ptr %66, align 4
  store i32 %67, ptr %2, align 8
  br label %81

68:                                               ; preds = %8
  %69 = getelementptr inbounds nuw i8, ptr %0, i64 72
  %70 = load i32, ptr %69, align 8
  %71 = getelementptr inbounds nuw i8, ptr %5, i64 113
  %72 = load i8, ptr %71, align 1, !range !6, !noundef !7
  %73 = trunc nuw i8 %72 to i1
  %74 = tail call i32 @RelationMapOidToFilenumber(i32 noundef %70, i1 noundef zeroext %73) #13
  store i32 %74, ptr %2, align 8
  %.not51 = icmp eq i32 %74, 0
  br i1 %.not51, label %75, label %81

75:                                               ; preds = %68
  %76 = tail call zeroext i1 @errstart_cold(i32 noundef 21, ptr noundef null) #14
  tail call void @llvm.assume(i1 %76)
  %77 = load ptr, ptr %4, align 8
  %78 = getelementptr inbounds nuw i8, ptr %77, i64 4
  %79 = load i32, ptr %69, align 8
  %80 = tail call i32 (ptr, ...) @errmsg_internal(ptr noundef nonnull @.str.63, ptr noundef nonnull %78, i32 noundef %79) #13
  tail call void @errfinish(ptr noundef nonnull @.str.1, i32 noundef 1369, ptr noundef nonnull @__func__.RelationInitPhysicalAddr) #13
  unreachable

81:                                               ; preds = %68, %64
  %82 = phi i32 [ %74, %68 ], [ %67, %64 ]
  %83 = load i32, ptr @ParallelWorkerNumber, align 4
  %84 = icmp slt i32 %83, 0
  %.not54 = icmp eq i32 %3, %82
  %or.cond55 = select i1 %84, i1 true, i1 %.not54
  br i1 %or.cond55, label %87, label %.sink.split

.sink.split:                                      ; preds = %81
  %.sroa.0.0.copyload = load i64, ptr %0, align 8
  %85 = tail call zeroext i1 @RelFileLocatorSkippingWAL(i64 %.sroa.0.0.copyload, i32 %82) #13
  %86 = getelementptr inbounds nuw i8, ptr %0, i64 48
  %. = zext i1 %85 to i32
  store i32 %., ptr %86, align 8
  br label %87

87:                                               ; preds = %.sink.split, %81, %1
  ret void
}